; Function Attrs: mustprogress uwtable
define dso_local void @_ZN14V3OptionParserC2Ev(ptr nocapture noundef nonnull writeonly align 8 dereferenceable(8) %0) unnamed_addr #3 align 2 personality ptr @__gxx_personality_v0 {
  %2 = tail call noalias noundef nonnull dereferenceable(80) ptr @_Znwm(i64 noundef 80) #21
  %3 = getelementptr inbounds i8, ptr %2, i64 8
  %4 = getelementptr inbounds i8, ptr %2, i64 24
  tail call void @llvm.memset.p0.i64(ptr noundef nonnull align 16 dereferenceable(32) %2, i8 0, i64 32, i1 false)
  store ptr %3, ptr %4, align 8
  %5 = getelementptr inbounds i8, ptr %2, i64 32
  store ptr %3, ptr %5, align 8
  %6 = getelementptr inbounds i8, ptr %2, i64 40
  store i64 0, ptr %6, align 8
  %7 = getelementptr inbounds i8, ptr %2, i64 48
  store i8 0, ptr %7, align 16
  %8 = getelementptr inbounds i8, ptr %2, i64 56
  tail call void @llvm.memset.p0.i64(ptr noundef nonnull align 8 dereferenceable(24) %8, i8 0, i64 24, i1 false)
  store ptr %2, ptr %0, align 8
  ret void
}